target datalayout = "e-m:e-p270:32:32-p271:32:32-p272:64:64-i64:64-i128:128-f80:128-n8:16:32:64-S128"
target triple = "x86_64-pc-linux-gnu"

%"class.std::vector" = type { %"struct.std::_Vector_base" }
%"struct.std::_Vector_base" = type { %"struct.std::_Vector_base<const Variable *, std::allocator<const Variable *>>::_Vector_impl" }
%"struct.std::_Vector_base<const Variable *, std::allocator<const Variable *>>::_Vector_impl" = type { %"struct.std::_Vector_base<const Variable *, std::allocator<const Variable *>>::_Vector_impl_data" }
%"struct.std::_Vector_base<const Variable *, std::allocator<const Variable *>>::_Vector_impl_data" = type { ptr, ptr, ptr }
%class.FactPointTo = type { %class.Fact.base, ptr, %"class.std::vector" }
%class.Fact.base = type <{ ptr, i32 }>
%class.Fact = type <{ ptr, i32, [4 x i8] }>

; Function Attrs: mustprogress nounwind uwtable
define linkonce_odr dso_local noundef nonnull align 8 dereferenceable(24) ptr @_ZNK11FactPointTo17get_point_to_varsEv(ptr noundef nonnull align 8 dereferenceable(48) %0) #5 comdat align 2 {
  %2 = alloca ptr, align 8
  store ptr %0, ptr %2, align 8, !tbaa !26
  %3 = load ptr, ptr %2, align 8
  %4 = getelementptr inbounds nuw %class.FactPointTo, ptr %3, i32 0, i32 2
  ret ptr %4
}

; Function Attrs: mustprogress uwtable
define dso_local noundef zeroext i1 @_ZNK11FactPointTo5equalERK4Fact(ptr noundef nonnull align 8 dereferenceable(48) %0, ptr noundef nonnull align 8 dereferenceable(12) %1) unnamed_addr #6 align 2 {
  %3 = alloca i1, align 1
  %4 = alloca ptr, align 8
  %5 = alloca ptr, align 8
  %6 = alloca ptr, align 8
  store ptr %0, ptr %4, align 8, !tbaa !26
  store ptr %1, ptr %5, align 8, !tbaa !61
  %7 = load ptr, ptr %4, align 8
  %8 = getelementptr inbounds nuw %class.Fact, ptr %7, i32 0, i32 1
  %9 = load i32, ptr %8, align 8, !tbaa !187
  %10 = load ptr, ptr %5, align 8, !tbaa !61
  %11 = getelementptr inbounds nuw %class.Fact, ptr %10, i32 0, i32 1
  %12 = load i32, ptr %11, align 8, !tbaa !187
  %13 = icmp eq i32 %9, %12
  br i1 %13, label %14, label %31

14:                                               ; preds = %2
  call void @llvm.lifetime.start.p0(i64 8, ptr %6) #3
  %15 = load ptr, ptr %5, align 8, !tbaa !61
  store ptr %15, ptr %6, align 8, !tbaa !26
  %16 = getelementptr inbounds nuw %class.FactPointTo, ptr %7, i32 0, i32 1
  %17 = load ptr, ptr %16, align 8, !tbaa !34
  %18 = load ptr, ptr %6, align 8, !tbaa !26
  %19 = load ptr, ptr %18, align 8, !tbaa !49
  %20 = getelementptr inbounds ptr, ptr %19, i64 15
  %21 = load ptr, ptr %20, align 8
  %22 = call noundef ptr %21(ptr noundef nonnull align 8 dereferenceable(48) %18)
  %23 = icmp eq ptr %17, %22
  br i1 %23, label %24, label %29

24:                                               ; preds = %14
  %25 = getelementptr inbounds nuw %class.FactPointTo, ptr %7, i32 0, i32 2
  %26 = load ptr, ptr %6, align 8, !tbaa !26
  %27 = call noundef nonnull align 8 dereferenceable(24) ptr @_ZNK11FactPointTo17get_point_to_varsEv(ptr noundef nonnull align 8 dereferenceable(48) %26)
  %28 = call noundef zeroext i1 @_Z19equal_variable_setsRKSt6vectorIPK8VariableSaIS2_EES6_(ptr noundef nonnull align 8 dereferenceable(24) %25, ptr noundef nonnull align 8 dereferenceable(24) %27)
  br label %29

29:                                               ; preds = %24, %14
  %30 = phi i1 [ false, %14 ], [ %28, %24 ]
  store i1 %30, ptr %3, align 1
  call void @llvm.lifetime.end.p0(i64 8, ptr %6) #3
  br label %32

31:                                               ; preds = %2
  store i1 false, ptr %3, align 1
  br label %32

32:                                               ; preds = %31, %29
  %33 = load i1, ptr %3, align 1
  ret i1 %33
}