; Function Attrs: mustprogress uwtable
define dso_local noundef zeroext i1 @_ZNK11FactPointTo5equalERK4Fact(ptr noundef nonnull align 8 dereferenceable(48) %0, ptr noundef nonnull align 8 dereferenceable(12) %1) unnamed_addr #6 align 2 {
  %3 = getelementptr inbounds nuw i8, ptr %0, i64 8
  %4 = load i32, ptr %3, align 8, !tbaa !143
  %5 = getelementptr inbounds nuw i8, ptr %1, i64 8
  %6 = load i32, ptr %5, align 8, !tbaa !143
  %7 = icmp eq i32 %4, %6
  br i1 %7, label %8, label %20

8:                                                ; preds = %2
  %9 = getelementptr inbounds nuw i8, ptr %0, i64 16
  %10 = load ptr, ptr %9, align 8, !tbaa !22
  %11 = load ptr, ptr %1, align 8, !tbaa !35
  %12 = getelementptr inbounds nuw i8, ptr %11, i64 120
  %13 = load ptr, ptr %12, align 8
  %14 = tail call noundef ptr %13(ptr noundef nonnull align 8 dereferenceable(48) %1)
  %15 = icmp eq ptr %10, %14
  br i1 %15, label %16, label %20

16:                                               ; preds = %8
  %17 = getelementptr inbounds nuw i8, ptr %0, i64 24
  %18 = getelementptr inbounds nuw i8, ptr %1, i64 24
  %19 = tail call noundef zeroext i1 @_Z19equal_variable_setsRKSt6vectorIPK8VariableSaIS2_EES6_(ptr noundef nonnull align 8 dereferenceable(24) %17, ptr noundef nonnull align 8 dereferenceable(24) %18)
  br label %20

20:                                               ; preds = %2, %8, %16
  %.0 = phi i1 [ false, %8 ], [ %19, %16 ], [ false, %2 ]
  ret i1 %.0
}